target datalayout = "e-m:e-p270:32:32-p271:32:32-p272:64:64-i64:64-i128:128-f80:128-n8:16:32:64-S128"
target triple = "x86_64-pc-linux-gnu"

%struct._priv_exr_context_t = type { i8, i8, i8, i8, i8, i8, i8, i8, %struct.exr_attr_string_t, %struct.exr_attr_string_t, ptr, ptr, ptr, ptr, ptr, ptr, ptr, ptr, i32, i32, i32, i32, i32, float, ptr, ptr, ptr, i64, ptr, ptr, i64, i32, i32, i32, i32, %struct._priv_exr_part_t, ptr, ptr, %struct.exr_attribute_list, %union.pthread_mutex_t, i8, i8, [2 x i8], i32 }
%struct.exr_attr_string_t = type { i32, i32, ptr }
%struct._priv_exr_part_t = type { i32, i32, %struct.exr_attribute_list, ptr, ptr, ptr, ptr, ptr, ptr, ptr, ptr, ptr, ptr, ptr, ptr, ptr, ptr, %struct.exr_attr_box2i_t, %struct.exr_attr_box2i_t, i32, i32, i32, float, i32, i32, ptr, ptr, ptr, ptr, i64, i16, i16, i32, i64, i64 }
%struct.exr_attr_box2i_t = type { %struct.exr_attr_v2i_t, %struct.exr_attr_v2i_t }
%struct.exr_attr_v2i_t = type { i32, i32 }
%struct.exr_attribute_list = type { i32, i32, ptr, ptr }
%union.pthread_mutex_t = type { %struct.__pthread_mutex_s }
%struct.__pthread_mutex_s = type { i32, i32, i32, i32, i32, i16, i16, %struct.__pthread_internal_list }
%struct.__pthread_internal_list = type { ptr, ptr }

@.str.1 = private unnamed_addr constant [28 x i8] c"Invalid file with no chunks\00", align 1
@.str.2 = private unnamed_addr constant [51 x i8] c"chunk table size (%lu) too big for file size (%ld)\00", align 1
@.str.3 = private unnamed_addr constant [56 x i8] c"Incomplete / corrupt chunk table, unable to reconstruct\00", align 1

; Function Attrs: inlinehint nounwind uwtable
define internal i64 @__uint64_identity(i64 noundef %0) #2 {
  %2 = alloca i64, align 8
  store i64 %0, ptr %2, align 8, !tbaa !33
  %3 = load i64, ptr %2, align 8, !tbaa !33
  ret i64 %3
}

; Function Attrs: inlinehint nounwind uwtable
define internal void @priv_to_native64(ptr noundef %0, i32 noundef %1) #2 {
  %3 = alloca ptr, align 8
  %4 = alloca i32, align 4
  store ptr %0, ptr %3, align 8, !tbaa !54
  store i32 %1, ptr %4, align 4, !tbaa !8
  ret void
}

; Function Attrs: inlinehint nounwind uwtable
define internal i64 @one_to_native64(i64 noundef %0) #2 {
  %2 = alloca i64, align 8
  store i64 %0, ptr %2, align 8, !tbaa !33
  %3 = load i64, ptr %2, align 8, !tbaa !33
  %4 = call i64 @__uint64_identity(i64 noundef %3)
  ret i64 %4
}

; Function Attrs: nounwind uwtable
define hidden i32 @extract_chunk_table(ptr noundef %0, ptr noundef %1, ptr noundef %2, ptr noundef %3) #0 {
  %5 = alloca i32, align 4
  %6 = alloca ptr, align 8
  %7 = alloca ptr, align 8
  %8 = alloca ptr, align 8
  %9 = alloca ptr, align 8
  %10 = alloca ptr, align 8
  %11 = alloca i64, align 8
  %12 = alloca i64, align 8
  %13 = alloca i64, align 8
  %14 = alloca i64, align 8
  %15 = alloca i64, align 8
  %16 = alloca i64, align 8
  %17 = alloca i32, align 4
  %18 = alloca i64, align 8
  %19 = alloca i32, align 4
  %20 = alloca i32, align 4
  %21 = alloca i32, align 4
  %22 = alloca i64, align 8
  %23 = alloca i64, align 8
  %24 = alloca i8, align 1
  store ptr %0, ptr %6, align 8, !tbaa !3
  store ptr %1, ptr %7, align 8, !tbaa !30
  store ptr %2, ptr %8, align 8, !tbaa !34
  store ptr %3, ptr %9, align 8, !tbaa !10
  call void @llvm.lifetime.start.p0(i64 8, ptr %10) #7
  store ptr null, ptr %10, align 8, !tbaa !10
  call void @llvm.lifetime.start.p0(i64 8, ptr %11) #7
  %25 = load ptr, ptr %7, align 8, !tbaa !30
  %26 = getelementptr inbounds nuw %struct._priv_exr_part_t, ptr %25, i32 0, i32 33
  %27 = load i64, ptr %26, align 8, !tbaa !32
  store i64 %27, ptr %11, align 8, !tbaa !33
  call void @llvm.lifetime.start.p0(i64 8, ptr %12) #7
  %28 = load ptr, ptr %7, align 8, !tbaa !30
  %29 = getelementptr inbounds nuw %struct._priv_exr_part_t, ptr %28, i32 0, i32 32
  %30 = load i32, ptr %29, align 4, !tbaa !36
  %31 = sext i32 %30 to i64
  %32 = mul i64 8, %31
  store i64 %32, ptr %12, align 8, !tbaa !33
  %33 = load i64, ptr %11, align 8, !tbaa !33
  %34 = load i64, ptr %12, align 8, !tbaa !33
  %35 = add i64 %33, %34
  %36 = load ptr, ptr %9, align 8, !tbaa !10
  store i64 %35, ptr %36, align 8, !tbaa !33
  %37 = load ptr, ptr %7, align 8, !tbaa !30
  %38 = getelementptr inbounds nuw %struct._priv_exr_part_t, ptr %37, i32 0, i32 34
  %39 = ptrtoint ptr %38 to i64
  %40 = inttoptr i64 %39 to ptr
  %41 = load atomic i64, ptr %40 seq_cst, align 8
  store i64 %41, ptr %13, align 8
  %42 = load i64, ptr %13, align 8, !tbaa !33
  %43 = inttoptr i64 %42 to ptr
  store ptr %43, ptr %10, align 8, !tbaa !10
  %44 = load ptr, ptr %10, align 8, !tbaa !10
  %45 = icmp eq ptr %44, null
  br i1 %45, label %46, label %237

46:                                               ; preds = %4
  call void @llvm.lifetime.start.p0(i64 8, ptr %14) #7
  store i64 0, ptr %14, align 8, !tbaa !33
  call void @llvm.lifetime.start.p0(i64 8, ptr %15) #7
  store i64 0, ptr %15, align 8, !tbaa !33
  call void @llvm.lifetime.start.p0(i64 8, ptr %16) #7
  store i64 0, ptr %16, align 8, !tbaa !33
  call void @llvm.lifetime.start.p0(i64 4, ptr %17) #7
  store i32 1, ptr %17, align 4, !tbaa !8
  call void @llvm.lifetime.start.p0(i64 8, ptr %18) #7
  store i64 -1, ptr %18, align 8, !tbaa !33
  call void @llvm.lifetime.start.p0(i64 4, ptr %19) #7
  %47 = load ptr, ptr %7, align 8, !tbaa !30
  %48 = getelementptr inbounds nuw %struct._priv_exr_part_t, ptr %47, i32 0, i32 32
  %49 = load i32, ptr %48, align 4, !tbaa !36
  %50 = icmp sle i32 %49, 0
  br i1 %50, label %51, label %57

51:                                               ; preds = %46
  %52 = load ptr, ptr %6, align 8, !tbaa !3
  %53 = getelementptr inbounds nuw %struct._priv_exr_context_t, ptr %52, i32 0, i32 13
  %54 = load ptr, ptr %53, align 8, !tbaa !37
  %55 = load ptr, ptr %6, align 8, !tbaa !3
  %56 = call i32 %54(ptr noundef %55, i32 noundef 3, ptr noundef @.str.1)
  store i32 %56, ptr %5, align 4
  store i32 1, ptr %20, align 4
  br label %234

57:                                               ; preds = %46
  %58 = load ptr, ptr %7, align 8, !tbaa !30
  %59 = getelementptr inbounds nuw %struct._priv_exr_part_t, ptr %58, i32 0, i32 32
  %60 = load i32, ptr %59, align 4, !tbaa !36
  %61 = icmp sgt i32 %60, 1048576
  br i1 %61, label %75, label %62

62:                                               ; preds = %57
  %63 = load ptr, ptr %6, align 8, !tbaa !3
  %64 = getelementptr inbounds nuw %struct._priv_exr_context_t, ptr %63, i32 0, i32 27
  %65 = load i64, ptr %64, align 8, !tbaa !38
  %66 = icmp sgt i64 %65, 0
  br i1 %66, label %67, label %85

67:                                               ; preds = %62
  %68 = load i64, ptr %12, align 8, !tbaa !33
  %69 = load i64, ptr %11, align 8, !tbaa !33
  %70 = add i64 %68, %69
  %71 = load ptr, ptr %6, align 8, !tbaa !3
  %72 = getelementptr inbounds nuw %struct._priv_exr_context_t, ptr %71, i32 0, i32 27
  %73 = load i64, ptr %72, align 8, !tbaa !38
  %74 = icmp ugt i64 %70, %73
  br i1 %74, label %75, label %85

75:                                               ; preds = %67, %57
  %76 = load ptr, ptr %6, align 8, !tbaa !3
  %77 = getelementptr inbounds nuw %struct._priv_exr_context_t, ptr %76, i32 0, i32 14
  %78 = load ptr, ptr %77, align 8, !tbaa !28
  %79 = load ptr, ptr %6, align 8, !tbaa !3
  %80 = load i64, ptr %12, align 8, !tbaa !33
  %81 = load ptr, ptr %6, align 8, !tbaa !3
  %82 = getelementptr inbounds nuw %struct._priv_exr_context_t, ptr %81, i32 0, i32 27
  %83 = load i64, ptr %82, align 8, !tbaa !38
  %84 = call i32 (ptr, i32, ptr, ...) %78(ptr noundef %79, i32 noundef 3, ptr noundef @.str.2, i64 noundef %80, i64 noundef %83)
  store i32 %84, ptr %5, align 4
  store i32 1, ptr %20, align 4
  br label %234

85:                                               ; preds = %67, %62
  %86 = load ptr, ptr %6, align 8, !tbaa !3
  %87 = getelementptr inbounds nuw %struct._priv_exr_context_t, ptr %86, i32 0, i32 16
  %88 = load ptr, ptr %87, align 8, !tbaa !39
  %89 = load i64, ptr %12, align 8, !tbaa !33
  %90 = call ptr %88(i64 noundef %89)
  store ptr %90, ptr %10, align 8, !tbaa !10
  %91 = load ptr, ptr %10, align 8, !tbaa !10
  %92 = icmp eq ptr %91, null
  br i1 %92, label %93, label %99

93:                                               ; preds = %85
  %94 = load ptr, ptr %6, align 8, !tbaa !3
  %95 = getelementptr inbounds nuw %struct._priv_exr_context_t, ptr %94, i32 0, i32 12
  %96 = load ptr, ptr %95, align 8, !tbaa !31
  %97 = load ptr, ptr %6, align 8, !tbaa !3
  %98 = call i32 %96(ptr noundef %97, i32 noundef 1)
  store i32 %98, ptr %5, align 4
  store i32 1, ptr %20, align 4
  br label %234

99:                                               ; preds = %85
  %100 = load ptr, ptr %6, align 8, !tbaa !3
  %101 = getelementptr inbounds nuw %struct._priv_exr_context_t, ptr %100, i32 0, i32 10
  %102 = load ptr, ptr %101, align 8, !tbaa !40
  %103 = load ptr, ptr %6, align 8, !tbaa !3
  %104 = load ptr, ptr %10, align 8, !tbaa !10
  %105 = load i64, ptr %12, align 8, !tbaa !33
  %106 = call i32 %102(ptr noundef %103, ptr noundef %104, i64 noundef %105, ptr noundef %11, ptr noundef %14, i32 noundef 0)
  store i32 %106, ptr %19, align 4, !tbaa !8
  %107 = load i32, ptr %19, align 4, !tbaa !8
  %108 = icmp ne i32 %107, 0
  br i1 %108, label %109, label %114

109:                                              ; preds = %99
  %110 = load ptr, ptr %6, align 8, !tbaa !3
  %111 = getelementptr inbounds nuw %struct._priv_exr_context_t, ptr %110, i32 0, i32 17
  %112 = load ptr, ptr %111, align 8, !tbaa !41
  %113 = load ptr, ptr %10, align 8, !tbaa !10
  call void %112(ptr noundef %113)
  store ptr inttoptr (i64 -1 to ptr), ptr %10, align 8, !tbaa !10
  br label %195

114:                                              ; preds = %99
  %115 = load ptr, ptr %6, align 8, !tbaa !3
  %116 = getelementptr inbounds nuw %struct._priv_exr_context_t, ptr %115, i32 0, i32 40
  %117 = load i8, ptr %116, align 8, !tbaa !42
  %118 = icmp ne i8 %117, 0
  br i1 %118, label %189, label %119

119:                                              ; preds = %114
  %120 = load ptr, ptr %6, align 8, !tbaa !3
  %121 = getelementptr inbounds nuw %struct._priv_exr_context_t, ptr %120, i32 0, i32 27
  %122 = load i64, ptr %121, align 8, !tbaa !38
  %123 = icmp sgt i64 %122, 0
  br i1 %123, label %124, label %128

124:                                              ; preds = %119
  %125 = load ptr, ptr %6, align 8, !tbaa !3
  %126 = getelementptr inbounds nuw %struct._priv_exr_context_t, ptr %125, i32 0, i32 27
  %127 = load i64, ptr %126, align 8, !tbaa !38
  store i64 %127, ptr %18, align 8, !tbaa !33
  br label %128

128:                                              ; preds = %124, %119
  call void @llvm.lifetime.start.p0(i64 4, ptr %21) #7
  store i32 0, ptr %21, align 4, !tbaa !8
  br label %129

129:                                              ; preds = %157, %128
  %130 = load i32, ptr %21, align 4, !tbaa !8
  %131 = load ptr, ptr %7, align 8, !tbaa !30
  %132 = getelementptr inbounds nuw %struct._priv_exr_part_t, ptr %131, i32 0, i32 32
  %133 = load i32, ptr %132, align 4, !tbaa !36
  %134 = icmp slt i32 %130, %133
  br i1 %134, label %136, label %135

135:                                              ; preds = %129
  store i32 2, ptr %20, align 4
  call void @llvm.lifetime.end.p0(i64 4, ptr %21) #7
  br label %160

136:                                              ; preds = %129
  call void @llvm.lifetime.start.p0(i64 8, ptr %22) #7
  %137 = load ptr, ptr %10, align 8, !tbaa !10
  %138 = load i32, ptr %21, align 4, !tbaa !8
  %139 = sext i32 %138 to i64
  %140 = getelementptr inbounds i64, ptr %137, i64 %139
  %141 = load i64, ptr %140, align 8, !tbaa !33
  %142 = call i64 @one_to_native64(i64 noundef %141)
  store i64 %142, ptr %22, align 8, !tbaa !33
  %143 = load i64, ptr %22, align 8, !tbaa !33
  %144 = load i64, ptr %11, align 8, !tbaa !33
  %145 = icmp ult i64 %143, %144
  br i1 %145, label %150, label %146

146:                                              ; preds = %136
  %147 = load i64, ptr %22, align 8, !tbaa !33
  %148 = load i64, ptr %18, align 8, !tbaa !33
  %149 = icmp uge i64 %147, %148
  br i1 %149, label %150, label %151

150:                                              ; preds = %146, %136
  store i32 0, ptr %17, align 4, !tbaa !8
  br label %151

151:                                              ; preds = %150, %146
  %152 = load i64, ptr %22, align 8, !tbaa !33
  %153 = load ptr, ptr %10, align 8, !tbaa !10
  %154 = load i32, ptr %21, align 4, !tbaa !8
  %155 = sext i32 %154 to i64
  %156 = getelementptr inbounds i64, ptr %153, i64 %155
  store i64 %152, ptr %156, align 8, !tbaa !33
  call void @llvm.lifetime.end.p0(i64 8, ptr %22) #7
  br label %157

157:                                              ; preds = %151
  %158 = load i32, ptr %21, align 4, !tbaa !8
  %159 = add nsw i32 %158, 1
  store i32 %159, ptr %21, align 4, !tbaa !8
  br label %129, !llvm.loop !43

160:                                              ; preds = %135
  %161 = load i32, ptr %17, align 4, !tbaa !8
  %162 = icmp ne i32 %161, 0
  br i1 %162, label %188, label %163

163:                                              ; preds = %160
  %164 = load ptr, ptr %6, align 8, !tbaa !3
  %165 = load ptr, ptr %7, align 8, !tbaa !30
  %166 = load ptr, ptr %10, align 8, !tbaa !10
  %167 = call i32 @reconstruct_chunk_table(ptr noundef %164, ptr noundef %165, ptr noundef %166)
  store i32 %167, ptr %19, align 4, !tbaa !8
  %168 = load i32, ptr %19, align 4, !tbaa !8
  %169 = icmp ne i32 %168, 0
  br i1 %169, label %170, label %187

170:                                              ; preds = %163
  %171 = load ptr, ptr %6, align 8, !tbaa !3
  %172 = getelementptr inbounds nuw %struct._priv_exr_context_t, ptr %171, i32 0, i32 6
  %173 = load i8, ptr %172, align 2, !tbaa !45
  %174 = icmp ne i8 %173, 0
  br i1 %174, label %175, label %185

175:                                              ; preds = %170
  %176 = load ptr, ptr %6, align 8, !tbaa !3
  %177 = getelementptr inbounds nuw %struct._priv_exr_context_t, ptr %176, i32 0, i32 17
  %178 = load ptr, ptr %177, align 8, !tbaa !41
  %179 = load ptr, ptr %10, align 8, !tbaa !10
  call void %178(ptr noundef %179)
  store ptr inttoptr (i64 -1 to ptr), ptr %10, align 8, !tbaa !10
  %180 = load ptr, ptr %6, align 8, !tbaa !3
  %181 = getelementptr inbounds nuw %struct._priv_exr_context_t, ptr %180, i32 0, i32 13
  %182 = load ptr, ptr %181, align 8, !tbaa !37
  %183 = load ptr, ptr %6, align 8, !tbaa !3
  %184 = call i32 %182(ptr noundef %183, i32 noundef 22, ptr noundef @.str.3)
  store i32 %184, ptr %19, align 4, !tbaa !8
  br label %186

185:                                              ; preds = %170
  store i32 0, ptr %19, align 4, !tbaa !8
  br label %186

186:                                              ; preds = %185, %175
  br label %187

187:                                              ; preds = %186, %163
  br label %188

188:                                              ; preds = %187, %160
  br label %194

189:                                              ; preds = %114
  %190 = load ptr, ptr %10, align 8, !tbaa !10
  %191 = load ptr, ptr %7, align 8, !tbaa !30
  %192 = getelementptr inbounds nuw %struct._priv_exr_part_t, ptr %191, i32 0, i32 32
  %193 = load i32, ptr %192, align 4, !tbaa !36
  call void @priv_to_native64(ptr noundef %190, i32 noundef %193)
  br label %194

194:                                              ; preds = %189, %188
  br label %195

195:                                              ; preds = %194, %109
  %196 = load ptr, ptr %10, align 8, !tbaa !10
  %197 = ptrtoint ptr %196 to i64
  store i64 %197, ptr %16, align 8, !tbaa !33
  %198 = load ptr, ptr %7, align 8, !tbaa !30
  %199 = getelementptr inbounds nuw %struct._priv_exr_part_t, ptr %198, i32 0, i32 34
  %200 = ptrtoint ptr %199 to i64
  %201 = inttoptr i64 %200 to ptr
  %202 = load i64, ptr %16, align 8, !tbaa !33
  store i64 %202, ptr %23, align 8, !tbaa !33
  %203 = load i64, ptr %15, align 8
  %204 = load i64, ptr %23, align 8
  %205 = cmpxchg ptr %201, i64 %203, i64 %204 seq_cst seq_cst, align 8
  %206 = extractvalue { i64, i1 } %205, 0
  %207 = extractvalue { i64, i1 } %205, 1
  br i1 %207, label %209, label %208

208:                                              ; preds = %195
  store i64 %206, ptr %15, align 8
  br label %209

209:                                              ; preds = %208, %195
  %210 = zext i1 %207 to i8
  store i8 %210, ptr %24, align 1, !tbaa !46
  %211 = load i8, ptr %24, align 1, !tbaa !46, !range !48, !noundef !49
  %212 = trunc i8 %211 to i1
  br i1 %212, label %233, label %213

213:                                              ; preds = %209
  %214 = load i64, ptr %16, align 8, !tbaa !33
  %215 = icmp ne i64 %214, -1
  br i1 %215, label %216, label %221

216:                                              ; preds = %213
  %217 = load ptr, ptr %6, align 8, !tbaa !3
  %218 = getelementptr inbounds nuw %struct._priv_exr_context_t, ptr %217, i32 0, i32 17
  %219 = load ptr, ptr %218, align 8, !tbaa !41
  %220 = load ptr, ptr %10, align 8, !tbaa !10
  call void %219(ptr noundef %220)
  br label %221

221:                                              ; preds = %216, %213
  %222 = load i64, ptr %15, align 8, !tbaa !33
  %223 = inttoptr i64 %222 to ptr
  store ptr %223, ptr %10, align 8, !tbaa !10
  %224 = load ptr, ptr %10, align 8, !tbaa !10
  %225 = icmp eq ptr %224, null
  br i1 %225, label %226, label %232

226:                                              ; preds = %221
  %227 = load ptr, ptr %6, align 8, !tbaa !3
  %228 = getelementptr inbounds nuw %struct._priv_exr_context_t, ptr %227, i32 0, i32 12
  %229 = load ptr, ptr %228, align 8, !tbaa !31
  %230 = load ptr, ptr %6, align 8, !tbaa !3
  %231 = call i32 %229(ptr noundef %230, i32 noundef 1)
  store i32 %231, ptr %5, align 4
  store i32 1, ptr %20, align 4
  br label %234

232:                                              ; preds = %221
  br label %233

233:                                              ; preds = %232, %209
  store i32 0, ptr %20, align 4
  br label %234

234:                                              ; preds = %233, %226, %93, %75, %51
  call void @llvm.lifetime.end.p0(i64 4, ptr %19) #7
  call void @llvm.lifetime.end.p0(i64 8, ptr %18) #7
  call void @llvm.lifetime.end.p0(i64 4, ptr %17) #7
  call void @llvm.lifetime.end.p0(i64 8, ptr %16) #7
  call void @llvm.lifetime.end.p0(i64 8, ptr %15) #7
  call void @llvm.lifetime.end.p0(i64 8, ptr %14) #7
  %235 = load i32, ptr %20, align 4
  switch i32 %235, label %244 [
    i32 0, label %236
  ]

236:                                              ; preds = %234
  br label %237

237:                                              ; preds = %236, %4
  %238 = load ptr, ptr %10, align 8, !tbaa !10
  %239 = load ptr, ptr %8, align 8, !tbaa !34
  store ptr %238, ptr %239, align 8, !tbaa !10
  %240 = load ptr, ptr %10, align 8, !tbaa !10
  %241 = ptrtoint ptr %240 to i64
  %242 = icmp eq i64 %241, -1
  %243 = select i1 %242, i32 22, i32 0
  store i32 %243, ptr %5, align 4
  store i32 1, ptr %20, align 4
  br label %244

244:                                              ; preds = %237, %234
  call void @llvm.lifetime.end.p0(i64 8, ptr %12) #7
  call void @llvm.lifetime.end.p0(i64 8, ptr %11) #7
  call void @llvm.lifetime.end.p0(i64 8, ptr %10) #7
  %245 = load i32, ptr %5, align 4
  ret i32 %245
}