; Function Attrs: nounwind uwtable
define hidden i32 @extract_chunk_table(ptr noundef %0, ptr noundef %1, ptr noundef writeonly captures(none) %2, ptr noundef writeonly captures(none) initializes((0, 8)) %3) local_unnamed_addr #0 {
  %5 = alloca i64, align 8
  %6 = alloca i64, align 8
  call void @llvm.lifetime.start.p0(i64 8, ptr nonnull %5) #8
  %7 = getelementptr inbounds nuw i8, ptr %1, i64 248
  %8 = load i64, ptr %7, align 8, !tbaa !27
  store i64 %8, ptr %5, align 8, !tbaa !28
  %9 = getelementptr inbounds nuw i8, ptr %1, i64 244
  %10 = load i32, ptr %9, align 4, !tbaa !29
  %11 = sext i32 %10 to i64
  %12 = shl nsw i64 %11, 3
  %13 = add i64 %12, %8
  store i64 %13, ptr %3, align 8, !tbaa !28
  %14 = getelementptr inbounds nuw i8, ptr %1, i64 256
  %15 = load atomic i64, ptr %14 seq_cst, align 8
  %16 = inttoptr i64 %15 to ptr
  %17 = icmp eq i64 %15, 0
  br i1 %17, label %18, label %87

18:                                               ; preds = %4
  call void @llvm.lifetime.start.p0(i64 8, ptr nonnull %6) #8
  store i64 0, ptr %6, align 8, !tbaa !28
  %19 = load i32, ptr %9, align 4, !tbaa !29
  %20 = icmp slt i32 %19, 1
  br i1 %20, label %21, label %25

21:                                               ; preds = %18
  %22 = getelementptr inbounds nuw i8, ptr %0, i64 64
  %23 = load ptr, ptr %22, align 8, !tbaa !30
  %24 = tail call i32 %23(ptr noundef %0, i32 noundef 3, ptr noundef nonnull @.str.1) #8
  br label %.thread

25:                                               ; preds = %18
  %26 = icmp samesign ugt i32 %19, 1048576
  %.phi.trans.insert = getelementptr inbounds nuw i8, ptr %0, i64 152
  %.pre = load i64, ptr %.phi.trans.insert, align 8, !tbaa !31
  br i1 %26, label %._crit_edge103, label %27

27:                                               ; preds = %25
  %28 = icmp sgt i64 %.pre, 0
  br i1 %28, label %29, label %36

29:                                               ; preds = %27
  %30 = load i64, ptr %5, align 8, !tbaa !28
  %31 = add i64 %30, %12
  %32 = icmp ugt i64 %31, %.pre
  br i1 %32, label %._crit_edge103, label %36

._crit_edge103:                                   ; preds = %25, %29
  %33 = getelementptr inbounds nuw i8, ptr %0, i64 72
  %34 = load ptr, ptr %33, align 8, !tbaa !23
  %35 = tail call i32 (ptr, i32, ptr, ...) %34(ptr noundef nonnull %0, i32 noundef 3, ptr noundef nonnull @.str.2, i64 noundef %12, i64 noundef %.pre) #8
  br label %.thread

36:                                               ; preds = %29, %27
  %37 = getelementptr inbounds nuw i8, ptr %0, i64 88
  %38 = load ptr, ptr %37, align 8, !tbaa !32
  %39 = tail call ptr %38(i64 noundef %12) #8
  %40 = icmp eq ptr %39, null
  br i1 %40, label %41, label %45

41:                                               ; preds = %36
  %42 = getelementptr inbounds nuw i8, ptr %0, i64 56
  %43 = load ptr, ptr %42, align 8, !tbaa !24
  %44 = tail call i32 %43(ptr noundef nonnull %0, i32 noundef 1) #8
  br label %.thread

45:                                               ; preds = %36
  %46 = getelementptr inbounds nuw i8, ptr %0, i64 40
  %47 = load ptr, ptr %46, align 8, !tbaa !33
  %48 = call i32 %47(ptr noundef nonnull %0, ptr noundef nonnull %39, i64 noundef %12, ptr noundef nonnull %5, ptr noundef nonnull %6, i32 noundef 0) #8
  %.not = icmp eq i32 %48, 0
  br i1 %.not, label %52, label %49

49:                                               ; preds = %45
  %50 = getelementptr inbounds nuw i8, ptr %0, i64 96
  %51 = load ptr, ptr %50, align 8, !tbaa !34
  call void %51(ptr noundef nonnull %39) #8
  br label %._crit_edge.thread

52:                                               ; preds = %45
  %53 = getelementptr inbounds nuw i8, ptr %0, i64 544
  %54 = load i8, ptr %53, align 8, !tbaa !35
  %.not91 = icmp eq i8 %54, 0
  br i1 %.not91, label %55, label %._crit_edge.thread

55:                                               ; preds = %52
  %56 = load i64, ptr %.phi.trans.insert, align 8, !tbaa !31
  %57 = icmp sgt i64 %56, 0
  %spec.select = select i1 %57, i64 %56, i64 -1
  %58 = load i32, ptr %9, align 4, !tbaa !29
  %59 = icmp sgt i32 %58, 0
  br i1 %59, label %.lr.ph, label %._crit_edge.thread

.lr.ph:                                           ; preds = %55
  %60 = load i64, ptr %5, align 8, !tbaa !28
  %wide.trip.count = zext nneg i32 %58 to i64
  br label %62

._crit_edge:                                      ; preds = %62
  %61 = icmp eq i32 %.180, 0
  br i1 %61, label %66, label %._crit_edge.thread

62:                                               ; preds = %.lr.ph, %62
  %indvars.iv = phi i64 [ 0, %.lr.ph ], [ %indvars.iv.next, %62 ]
  %.079100 = phi i32 [ 1, %.lr.ph ], [ %.180, %62 ]
  %63 = getelementptr inbounds nuw i64, ptr %39, i64 %indvars.iv
  %64 = load i64, ptr %63, align 8, !tbaa !28
  %65 = icmp uge i64 %64, %60
  %.not95 = icmp ult i64 %64, %spec.select
  %or.cond = select i1 %65, i1 %.not95, i1 false
  %.180 = select i1 %or.cond, i32 %.079100, i32 0
  %indvars.iv.next = add nuw nsw i64 %indvars.iv, 1
  %exitcond.not = icmp eq i64 %indvars.iv.next, %wide.trip.count
  br i1 %exitcond.not, label %._crit_edge, label %62, !llvm.loop !36

66:                                               ; preds = %._crit_edge
  %67 = call fastcc i32 @reconstruct_chunk_table(ptr noundef nonnull %0, ptr noundef nonnull %1, ptr noundef %39)
  %.not93 = icmp eq i32 %67, 0
  br i1 %.not93, label %._crit_edge.thread, label %68

68:                                               ; preds = %66
  %69 = getelementptr inbounds nuw i8, ptr %0, i64 6
  %70 = load i8, ptr %69, align 2, !tbaa !38
  %.not94 = icmp eq i8 %70, 0
  br i1 %.not94, label %._crit_edge.thread, label %71

71:                                               ; preds = %68
  %72 = getelementptr inbounds nuw i8, ptr %0, i64 96
  %73 = load ptr, ptr %72, align 8, !tbaa !34
  call void %73(ptr noundef nonnull %39) #8
  %74 = getelementptr inbounds nuw i8, ptr %0, i64 64
  %75 = load ptr, ptr %74, align 8, !tbaa !30
  %76 = call i32 %75(ptr noundef nonnull %0, i32 noundef 22, ptr noundef nonnull @.str.3) #8
  br label %._crit_edge.thread

._crit_edge.thread:                               ; preds = %55, %52, %68, %66, %71, %._crit_edge, %49
  %.2 = phi ptr [ inttoptr (i64 -1 to ptr), %49 ], [ %39, %._crit_edge ], [ inttoptr (i64 -1 to ptr), %71 ], [ %39, %66 ], [ %39, %68 ], [ %39, %52 ], [ %39, %55 ]
  %77 = ptrtoint ptr %.2 to i64
  %78 = cmpxchg ptr %14, i64 0, i64 %77 seq_cst seq_cst, align 8
  %79 = extractvalue { i64, i1 } %78, 1
  %80 = extractvalue { i64, i1 } %78, 0
  %81 = inttoptr i64 %80 to ptr
  br i1 %79, label %86, label %82

82:                                               ; preds = %._crit_edge.thread
  %.not96 = icmp eq ptr %.2, inttoptr (i64 -1 to ptr)
  br i1 %.not96, label %86, label %83

83:                                               ; preds = %82
  %84 = getelementptr inbounds nuw i8, ptr %0, i64 96
  %85 = load ptr, ptr %84, align 8, !tbaa !34
  call void %85(ptr noundef nonnull %.2) #8
  br label %86

.thread:                                          ; preds = %21, %._crit_edge103, %41
  %.0.ph = phi i32 [ %44, %41 ], [ %35, %._crit_edge103 ], [ %24, %21 ]
  call void @llvm.lifetime.end.p0(i64 8, ptr nonnull %6) #8
  br label %90

86:                                               ; preds = %82, %83, %._crit_edge.thread
  %.174 = phi ptr [ %.2, %._crit_edge.thread ], [ %81, %83 ], [ %81, %82 ]
  call void @llvm.lifetime.end.p0(i64 8, ptr nonnull %6) #8
  br label %87

87:                                               ; preds = %86, %4
  %.073 = phi ptr [ %.174, %86 ], [ %16, %4 ]
  store ptr %.073, ptr %2, align 8, !tbaa !39
  %88 = icmp eq ptr %.073, inttoptr (i64 -1 to ptr)
  %89 = select i1 %88, i32 22, i32 0
  br label %90

90:                                               ; preds = %.thread, %87
  %.1 = phi i32 [ %89, %87 ], [ %.0.ph, %.thread ]
  call void @llvm.lifetime.end.p0(i64 8, ptr nonnull %5) #8
  ret i32 %.1
}